(dp1
S'high'
p2
(dp3
S'beautiful'
p4
(lp5
cdecimal
Decimal
p6
(S'74'
p7
tRp8
ag6
(S'23'
p9
tRp10
ag6
(S'1'
tRp11
asS'summer'
p12
(lp13
g6
(S'94'
p14
tRp15
ag6
(S'3'
tRp16
ag6
(S'1'
tRp17
asS'dance'
p18
(lp19
g6
(S'67'
p20
tRp21
ag6
(S'25'
p22
tRp23
ag6
(S'6'
tRp24
asS'lush'
p25
(lp26
g6
(S'98'
p27
tRp28
ag6
(S'1'
tRp29
ag6
(S'0'
tRp30
asS'Synthpop'
p31
(lp32
g6
(S'100'
p33
tRp34
ag6
(S'0'
tRp35
ag6
(S'0'
tRp36
asS'new wave'
p37
(lp38
g6
(S'89'
p39
tRp40
ag6
(S'8'
tRp41
ag6
(S'1'
tRp42
asS'gothic'
p43
(lp44
g6
(S'100'
p45
tRp46
ag6
(S'0'
tRp47
ag6
(S'0'
tRp48
asS'ambient'
p49
(lp50
g6
(S'84'
p51
tRp52
ag6
(S'8'
tRp53
ag6
(S'6'
tRp54
asS'blues'
p55
(lp56
g6
(S'96'
p57
tRp58
ag6
(S'3'
tRp59
ag6
(S'0'
tRp60
asS'electronic'
p61
(lp62
g6
(S'37'
p63
tRp64
ag6
(S'22'
p65
tRp66
ag6
(S'40'
p67
tRp68
asS'hip-hop'
p69
(lp70
g6
(S'100'
p71
tRp72
ag6
(S'0'
tRp73
ag6
(S'0'
tRp74
asS'classic rock'
p75
(lp76
g6
(S'93'
p77
tRp78
ag6
(S'6'
tRp79
ag6
(S'0'
tRp80
asS'britpop'
p81
(lp82
g6
(S'84'
p83
tRp84
ag6
(S'6'
tRp85
ag6
(S'8'
tRp86
asS'Rnb'
p87
(lp88
g6
(S'100'
p89
tRp90
ag6
(S'0'
tRp91
ag6
(S'0'
tRp92
asS'shoegaze'
p93
(lp94
g6
(S'94'
p95
tRp96
ag6
(S'1'
tRp97
ag6
(S'3'
tRp98
asS'easy listening'
p99
(lp100
g6
(S'98'
p101
tRp102
ag6
(S'1'
tRp103
ag6
(S'0'
tRp104
asS'post-punk'
p105
(lp106
g6
(S'89'
p107
tRp108
ag6
(S'8'
tRp109
ag6
(S'1'
tRp110
asS'post-rock'
p111
(lp112
g6
(S'89'
p113
tRp114
ag6
(S'5'
tRp115
ag6
(S'5'
tRp116
asS'trip-hop'
p117
(lp118
g6
(S'98'
p119
tRp120
ag6
(S'1'
tRp121
ag6
(S'0'
tRp122
asS'piano'
p123
(lp124
g6
(S'98'
p125
tRp126
ag6
(S'1'
tRp127
ag6
(S'0'
tRp128
asS'epic'
p129
(lp130
g6
(S'81'
p131
tRp132
ag6
(S'16'
p133
tRp134
ag6
(S'1'
tRp135
asS'minimal'
p136
(lp137
g6
(S'86'
p138
tRp139
ag6
(S'8'
tRp140
ag6
(S'5'
tRp141
asS'calm'
p142
(lp143
g6
(S'100'
p144
tRp145
ag6
(S'0'
tRp146
ag6
(S'0'
tRp147
asS'reggae'
p148
(lp149
g6
(S'100'
p150
tRp151
ag6
(S'0'
tRp152
ag6
(S'0'
tRp153
asS'melancholy'
p154
(lp155
g6
(S'86'
p156
tRp157
ag6
(S'13'
p158
tRp159
ag6
(S'0'
tRp160
asS'noise'
p161
(lp162
g6
(S'89'
p163
tRp164
ag6
(S'8'
tRp165
ag6
(S'1'
tRp166
asS'jazz'
p167
(lp168
g6
(S'100'
p169
tRp170
ag6
(S'0'
tRp171
ag6
(S'0'
tRp172
asS'folk'
p173
(lp174
g6
(S'93'
p175
tRp176
ag6
(S'6'
tRp177
ag6
(S'0'
tRp178
asS'singer-songwriter'
p179
(lp180
g6
(S'93'
p181
tRp182
ag6
(S'6'
tRp183
ag6
(S'0'
tRp184
asS'sad'
p185
(lp186
g6
(S'96'
p187
tRp188
ag6
(S'3'
tRp189
ag6
(S'0'
tRp190
asS'Mellow'
p191
(lp192
g6
(S'91'
p193
tRp194
ag6
(S'8'
tRp195
ag6
(S'0'
tRp196
asS'psychedelic'
p197
(lp198
g6
(S'84'
p199
tRp200
ag6
(S'10'
p201
tRp202
ag6
(S'5'
tRp203
asS'cool'
p204
(lp205
g6
(S'83'
p206
tRp207
ag6
(S'16'
p208
tRp209
ag6
(S'0'
tRp210
asS'romantic'
p211
(lp212
g6
(S'98'
p213
tRp214
ag6
(S'1'
tRp215
ag6
(S'0'
tRp216
asS'country'
p217
(lp218
g6
(S'100'
p219
tRp220
ag6
(S'0'
tRp221
ag6
(S'0'
tRp222
asS'emo'
p223
(lp224
g6
(S'98'
p225
tRp226
ag6
(S'1'
tRp227
ag6
(S'0'
tRp228
asS'punk'
p229
(lp230
g6
(S'94'
p231
tRp232
ag6
(S'5'
tRp233
ag6
(S'0'
tRp234
asS'saxophone'
p235
(lp236
g6
(S'100'
p237
tRp238
ag6
(S'0'
tRp239
ag6
(S'0'
tRp240
asS'chillout'
p241
(lp242
g6
(S'86'
p243
tRp244
ag6
(S'13'
p245
tRp246
ag6
(S'0'
tRp247
asS'Ska'
p248
(lp249
g6
(S'100'
p250
tRp251
ag6
(S'0'
tRp252
ag6
(S'0'
tRp253
asS'Lo-fi'
p254
(lp255
g6
(S'100'
p256
tRp257
ag6
(S'0'
tRp258
ag6
(S'0'
tRp259
assS'down'
p260
(dp261
g4
(lp262
g6
(S'58'
p263
tRp264
ag6
(S'36'
p265
tRp266
ag6
(S'5'
tRp267
asg12
(lp268
g6
(S'94'
p269
tRp270
ag6
(S'5'
tRp271
ag6
(S'0'
tRp272
asg18
(lp273
g6
(S'99'
p274
tRp275
ag6
(S'0'
tRp276
ag6
(S'0'
tRp277
asg25
(lp278
g6
(S'94'
p279
tRp280
ag6
(S'2'
tRp281
ag6
(S'3'
tRp282
asg31
(lp283
g6
(S'100'
p284
tRp285
ag6
(S'0'
tRp286
ag6
(S'0'
tRp287
asg37
(lp288
g6
(S'96'
p289
tRp290
ag6
(S'3'
tRp291
ag6
(S'0'
tRp292
asg43
(lp293
g6
(S'100'
p294
tRp295
ag6
(S'0'
tRp296
ag6
(S'0'
tRp297
asg49
(lp298
g6
(S'80'
p299
tRp300
ag6
(S'13'
p301
tRp302
ag6
(S'5'
tRp303
asg55
(lp304
g6
(S'90'
p305
tRp306
ag6
(S'9'
tRp307
ag6
(S'0'
tRp308
asg61
(lp309
g6
(S'86'
p310
tRp311
ag6
(S'8'
tRp312
ag6
(S'5'
tRp313
asg69
(lp314
g6
(S'100'
p315
tRp316
ag6
(S'0'
tRp317
ag6
(S'0'
tRp318
asg75
(lp319
g6
(S'92'
p320
tRp321
ag6
(S'6'
tRp322
ag6
(S'0'
tRp323
asg81
(lp324
g6
(S'98'
p325
tRp326
ag6
(S'0'
tRp327
ag6
(S'1'
tRp328
asg87
(lp329
g6
(S'100'
p330
tRp331
ag6
(S'0'
tRp332
ag6
(S'0'
tRp333
asg93
(lp334
g6
(S'93'
p335
tRp336
ag6
(S'5'
tRp337
ag6
(S'0'
tRp338
asg99
(lp339
g6
(S'88'
p340
tRp341
ag6
(S'11'
p342
tRp343
ag6
(S'0'
tRp344
asg105
(lp345
g6
(S'99'
p346
tRp347
ag6
(S'0'
tRp348
ag6
(S'0'
tRp349
asg111
(lp350
g6
(S'96'
p351
tRp352
ag6
(S'1'
tRp353
ag6
(S'2'
tRp354
asg117
(lp355
g6
(S'94'
p356
tRp357
ag6
(S'4'
tRp358
ag6
(S'1'
tRp359
asg123
(lp360
g6
(S'81'
p361
tRp362
ag6
(S'11'
p363
tRp364
ag6
(S'6'
tRp365
asg129
(lp366
g6
(S'94'
p367
tRp368
ag6
(S'5'
tRp369
ag6
(S'0'
tRp370
asg136
(lp371
g6
(S'95'
p372
tRp373
ag6
(S'3'
tRp374
ag6
(S'0'
tRp375
asg142
(lp376
g6
(S'88'
p377
tRp378
ag6
(S'11'
p379
tRp380
ag6
(S'0'
tRp381
asg148
(lp382
g6
(S'100'
p383
tRp384
ag6
(S'0'
tRp385
ag6
(S'0'
tRp386
asg154
(lp387
g6
(S'71'
p388
tRp389
ag6
(S'25'
p390
tRp391
ag6
(S'2'
tRp392
asg161
(lp393
g6
(S'97'
p394
tRp395
ag6
(S'2'
tRp396
ag6
(S'0'
tRp397
asg167
(lp398
g6
(S'91'
p399
tRp400
ag6
(S'2'
tRp401
ag6
(S'6'
tRp402
asg173
(lp403
g6
(S'47'
p404
tRp405
ag6
(S'23'
p406
tRp407
ag6
(S'29'
p408
tRp409
asg179
(lp410
g6
(S'48'
p411
tRp412
ag6
(S'24'
p413
tRp414
ag6
(S'27'
p415
tRp416
asg185
(lp417
g6
(S'71'
p418
tRp419
ag6
(S'27'
p420
tRp421
ag6
(S'1'
tRp422
asg191
(lp423
g6
(S'55'
p424
tRp425
ag6
(S'38'
p426
tRp427
ag6
(S'5'
tRp428
asg197
(lp429
g6
(S'93'
p430
tRp431
ag6
(S'4'
tRp432
ag6
(S'2'
tRp433
asg204
(lp434
g6
(S'96'
p435
tRp436
ag6
(S'3'
tRp437
ag6
(S'0'
tRp438
asg211
(lp439
g6
(S'90'
p440
tRp441
ag6
(S'8'
tRp442
ag6
(S'0'
tRp443
asg217
(lp444
g6
(S'96'
p445
tRp446
ag6
(S'2'
tRp447
ag6
(S'0'
tRp448
asg223
(lp449
g6
(S'97'
p450
tRp451
ag6
(S'2'
tRp452
ag6
(S'0'
tRp453
asg229
(lp454
g6
(S'100'
p455
tRp456
ag6
(S'0'
tRp457
ag6
(S'0'
tRp458
asg235
(lp459
g6
(S'97'
p460
tRp461
ag6
(S'2'
tRp462
ag6
(S'0'
tRp463
asg241
(lp464
g6
(S'68'
p465
tRp466
ag6
(S'28'
p467
tRp468
ag6
(S'2'
tRp469
asg248
(lp470
g6
(S'100'
p471
tRp472
ag6
(S'0'
tRp473
ag6
(S'0'
tRp474
asg254
(lp475
g6
(S'100'
p476
tRp477
ag6
(S'0'
tRp478
ag6
(S'0'
tRp479
assS'up'
p480
(dp481
g4
(lp482
g6
(S'63'
p483
tRp484
ag6
(S'34'
p485
tRp486
ag6
(S'2'
tRp487
asg12
(lp488
g6
(S'84'
p489
tRp490
ag6
(S'15'
p491
tRp492
ag6
(S'0'
tRp493
asg18
(lp494
g6
(S'91'
p495
tRp496
ag6
(S'7'
tRp497
ag6
(S'0'
tRp498
asg25
(lp499
g6
(S'97'
p500
tRp501
ag6
(S'2'
tRp502
ag6
(S'0'
tRp503
asg31
(lp504
g6
(S'100'
p505
tRp506
ag6
(S'0'
tRp507
ag6
(S'0'
tRp508
asg37
(lp509
g6
(S'91'
p510
tRp511
ag6
(S'6'
tRp512
ag6
(S'2'
tRp513
asg43
(lp514
g6
(S'100'
p515
tRp516
ag6
(S'0'
tRp517
ag6
(S'0'
tRp518
asg49
(lp519
g6
(S'83'
p520
tRp521
ag6
(S'12'
p522
tRp523
ag6
(S'3'
tRp524
asg55
(lp525
g6
(S'93'
p526
tRp527
ag6
(S'6'
tRp528
ag6
(S'0'
tRp529
asg61
(lp530
g6
(S'68'
p531
tRp532
ag6
(S'18'
p533
tRp534
ag6
(S'13'
p535
tRp536
asg69
(lp537
g6
(S'100'
p538
tRp539
ag6
(S'0'
tRp540
ag6
(S'0'
tRp541
asg75
(lp542
g6
(S'93'
p543
tRp544
ag6
(S'5'
tRp545
ag6
(S'0'
tRp546
asg81
(lp547
g6
(S'85'
p548
tRp549
ag6
(S'12'
p550
tRp551
ag6
(S'2'
tRp552
asg87
(lp553
g6
(S'100'
p554
tRp555
ag6
(S'0'
tRp556
ag6
(S'0'
tRp557
asg93
(lp558
g6
(S'86'
p559
tRp560
ag6
(S'7'
tRp561
ag6
(S'6'
tRp562
asg99
(lp563
g6
(S'92'
p564
tRp565
ag6
(S'7'
tRp566
ag6
(S'0'
tRp567
asg105
(lp568
g6
(S'83'
p569
tRp570
ag6
(S'9'
tRp571
ag6
(S'6'
tRp572
asg111
(lp573
g6
(S'89'
p574
tRp575
ag6
(S'6'
tRp576
ag6
(S'4'
tRp577
asg117
(lp578
g6
(S'90'
p579
tRp580
ag6
(S'8'
tRp581
ag6
(S'1'
tRp582
asg123
(lp583
g6
(S'91'
p584
tRp585
ag6
(S'7'
tRp586
ag6
(S'1'
tRp587
asg129
(lp588
g6
(S'88'
p589
tRp590
ag6
(S'11'
p591
tRp592
ag6
(S'0'
tRp593
asg136
(lp594
g6
(S'97'
p595
tRp596
ag6
(S'2'
tRp597
ag6
(S'0'
tRp598
asg142
(lp599
g6
(S'95'
p600
tRp601
ag6
(S'4'
tRp602
ag6
(S'0'
tRp603
asg148
(lp604
g6
(S'100'
p605
tRp606
ag6
(S'0'
tRp607
ag6
(S'0'
tRp608
asg154
(lp609
g6
(S'80'
p610
tRp611
ag6
(S'19'
p612
tRp613
ag6
(S'0'
tRp614
asg161
(lp615
g6
(S'96'
p616
tRp617
ag6
(S'2'
tRp618
ag6
(S'1'
tRp619
asg167
(lp620
g6
(S'93'
p621
tRp622
ag6
(S'2'
tRp623
ag6
(S'4'
tRp624
asg173
(lp625
g6
(S'80'
p626
tRp627
ag6
(S'12'
p628
tRp629
ag6
(S'7'
tRp630
asg179
(lp631
g6
(S'75'
p632
tRp633
ag6
(S'18'
p634
tRp635
ag6
(S'6'
tRp636
asg185
(lp637
g6
(S'81'
p638
tRp639
ag6
(S'17'
p640
tRp641
ag6
(S'0'
tRp642
asg191
(lp643
g6
(S'69'
p644
tRp645
ag6
(S'28'
p646
tRp647
ag6
(S'1'
tRp648
asg197
(lp649
g6
(S'79'
p650
tRp651
ag6
(S'15'
p652
tRp653
ag6
(S'5'
tRp654
asg204
(lp655
g6
(S'87'
p656
tRp657
ag6
(S'12'
p658
tRp659
ag6
(S'0'
tRp660
asg211
(lp661
g6
(S'94'
p662
tRp663
ag6
(S'5'
tRp664
ag6
(S'0'
tRp665
asg217
(lp666
g6
(S'99'
p667
tRp668
ag6
(S'0'
tRp669
ag6
(S'0'
tRp670
asg223
(lp671
g6
(S'97'
p672
tRp673
ag6
(S'2'
tRp674
ag6
(S'0'
tRp675
asg229
(lp676
g6
(S'93'
p677
tRp678
ag6
(S'6'
tRp679
ag6
(S'0'
tRp680
asg235
(lp681
g6
(S'96'
p682
tRp683
ag6
(S'3'
tRp684
ag6
(S'0'
tRp685
asg241
(lp686
g6
(S'74'
p687
tRp688
ag6
(S'20'
p689
tRp690
ag6
(S'4'
tRp691
asg248
(lp692
g6
(S'100'
p693
tRp694
ag6
(S'0'
tRp695
ag6
(S'0'
tRp696
asg254
(lp697
g6
(S'100'
p698
tRp699
ag6
(S'0'
tRp700
ag6
(S'0'
tRp701
assS'low'
p702
(dp703
g4
(lp704
g6
(S'56'
p705
tRp706
ag6
(S'43'
p707
tRp708
ag6
(S'0'
tRp709
asg12
(lp710
g6
(S'96'
p711
tRp712
ag6
(S'3'
tRp713
ag6
(S'0'
tRp714
asg18
(lp715
g6
(S'93'
p716
tRp717
ag6
(S'6'
tRp718
ag6
(S'0'
tRp719
asg25
(lp720
g6
(S'100'
p721
tRp722
ag6
(S'0'
tRp723
ag6
(S'0'
tRp724
asg31
(lp725
g6
(S'100'
p726
tRp727
ag6
(S'0'
tRp728
ag6
(S'0'
tRp729
asg37
(lp730
g6
(S'100'
p731
tRp732
ag6
(S'0'
tRp733
ag6
(S'0'
tRp734
asg43
(lp735
g6
(S'100'
p736
tRp737
ag6
(S'0'
tRp738
ag6
(S'0'
tRp739
asg49
(lp740
g6
(S'12'
p741
tRp742
ag6
(S'15'
p743
tRp744
ag6
(S'71'
p745
tRp746
asg55
(lp747
g6
(S'96'
p748
tRp749
ag6
(S'3'
tRp750
ag6
(S'0'
tRp751
asg61
(lp752
g6
(S'46'
p753
tRp754
ag6
(S'34'
p755
tRp756
ag6
(S'18'
p757
tRp758
asg69
(lp759
g6
(S'100'
p760
tRp761
ag6
(S'0'
tRp762
ag6
(S'0'
tRp763
asg75
(lp764
g6
(S'100'
p765
tRp766
ag6
(S'0'
tRp767
ag6
(S'0'
tRp768
asg81
(lp769
g6
(S'100'
p770
tRp771
ag6
(S'0'
tRp772
ag6
(S'0'
tRp773
asg87
(lp774
g6
(S'100'
p775
tRp776
ag6
(S'0'
tRp777
ag6
(S'0'
tRp778
asg93
(lp779
g6
(S'96'
p780
tRp781
ag6
(S'3'
tRp782
ag6
(S'0'
tRp783
asg99
(lp784
g6
(S'90'
p785
tRp786
ag6
(S'6'
tRp787
ag6
(S'3'
tRp788
asg105
(lp789
g6
(S'100'
p790
tRp791
ag6
(S'0'
tRp792
ag6
(S'0'
tRp793
asg111
(lp794
g6
(S'84'
p795
tRp796
ag6
(S'9'
tRp797
ag6
(S'6'
tRp798
asg117
(lp799
g6
(S'90'
p800
tRp801
ag6
(S'6'
tRp802
ag6
(S'3'
tRp803
asg123
(lp804
g6
(S'46'
p805
tRp806
ag6
(S'18'
p807
tRp808
ag6
(S'34'
p809
tRp810
asg129
(lp811
g6
(S'100'
p812
tRp813
ag6
(S'0'
tRp814
ag6
(S'0'
tRp815
asg136
(lp816
g6
(S'81'
p817
tRp818
ag6
(S'18'
p819
tRp820
ag6
(S'0'
tRp821
asg142
(lp822
g6
(S'93'
p823
tRp824
ag6
(S'6'
tRp825
ag6
(S'0'
tRp826
asg148
(lp827
g6
(S'100'
p828
tRp829
ag6
(S'0'
tRp830
ag6
(S'0'
tRp831
asg154
(lp832
g6
(S'50'
p833
tRp834
ag6
(S'25'
p835
tRp836
ag6
(S'25'
p837
tRp838
asg161
(lp839
g6
(S'96'
p840
tRp841
ag6
(S'3'
tRp842
ag6
(S'0'
tRp843
asg167
(lp844
g6
(S'90'
p845
tRp846
ag6
(S'3'
tRp847
ag6
(S'6'
tRp848
asg173
(lp849
g6
(S'96'
p850
tRp851
ag6
(S'3'
tRp852
ag6
(S'0'
tRp853
asg179
(lp854
g6
(S'100'
p855
tRp856
ag6
(S'0'
tRp857
ag6
(S'0'
tRp858
asg185
(lp859
g6
(S'96'
p860
tRp861
ag6
(S'3'
tRp862
ag6
(S'0'
tRp863
asg191
(lp864
g6
(S'75'
p865
tRp866
ag6
(S'25'
p867
tRp868
ag6
(S'0'
tRp869
asg197
(lp870
g6
(S'90'
p871
tRp872
ag6
(S'9'
tRp873
ag6
(S'0'
tRp874
asg204
(lp875
g6
(S'90'
p876
tRp877
ag6
(S'9'
tRp878
ag6
(S'0'
tRp879
asg211
(lp880
g6
(S'100'
p881
tRp882
ag6
(S'0'
tRp883
ag6
(S'0'
tRp884
asg217
(lp885
g6
(S'100'
p886
tRp887
ag6
(S'0'
tRp888
ag6
(S'0'
tRp889
asg223
(lp890
g6
(S'100'
p891
tRp892
ag6
(S'0'
tRp893
ag6
(S'0'
tRp894
asg229
(lp895
g6
(S'100'
p896
tRp897
ag6
(S'0'
tRp898
ag6
(S'0'
tRp899
asg235
(lp900
g6
(S'100'
p901
tRp902
ag6
(S'0'
tRp903
ag6
(S'0'
tRp904
asg241
(lp905
g6
(S'50'
p906
tRp907
ag6
(S'37'
p908
tRp909
ag6
(S'12'
p910
tRp911
asg248
(lp912
g6
(S'100'
p913
tRp914
ag6
(S'0'
tRp915
ag6
(S'0'
tRp916
asg254
(lp917
g6
(S'100'
p918
tRp919
ag6
(S'0'
tRp920
ag6
(S'0'
tRp921
ass.