(dp1
S'neutral'
p2
(dp3
S'beautiful'
p4
(lp5
cdecimal
Decimal
p6
(S'62'
p7
tRp8
ag6
(S'35'
p9
tRp10
ag6
(S'2'
tRp11
asS'summer'
p12
(lp13
g6
(S'89'
p14
tRp15
ag6
(S'10'
p16
tRp17
ag6
(S'0'
tRp18
asS'dance'
p19
(lp20
g6
(S'94'
p21
tRp22
ag6
(S'4'
tRp23
ag6
(S'0'
tRp24
asS'lush'
p25
(lp26
g6
(S'98'
p27
tRp28
ag6
(S'0'
tRp29
ag6
(S'0'
tRp30
asS'Synthpop'
p31
(lp32
g6
(S'100'
p33
tRp34
ag6
(S'0'
tRp35
ag6
(S'0'
tRp36
asS'new wave'
p37
(lp38
g6
(S'95'
p39
tRp40
ag6
(S'3'
tRp41
ag6
(S'0'
tRp42
asS'gothic'
p43
(lp44
g6
(S'100'
p45
tRp46
ag6
(S'0'
tRp47
ag6
(S'0'
tRp48
asS'ambient'
p49
(lp50
g6
(S'70'
p51
tRp52
ag6
(S'16'
p53
tRp54
ag6
(S'13'
p55
tRp56
asS'blues'
p57
(lp58
g6
(S'93'
p59
tRp60
ag6
(S'6'
tRp61
ag6
(S'0'
tRp62
asS'electronic'
p63
(lp64
g6
(S'59'
p65
tRp66
ag6
(S'18'
p67
tRp68
ag6
(S'21'
p69
tRp70
asS'hip-hop'
p71
(lp72
g6
(S'100'
p73
tRp74
ag6
(S'0'
tRp75
ag6
(S'0'
tRp76
asS'classic rock'
p77
(lp78
g6
(S'94'
p79
tRp80
ag6
(S'5'
tRp81
ag6
(S'0'
tRp82
asS'britpop'
p83
(lp84
g6
(S'87'
p85
tRp86
ag6
(S'9'
tRp87
ag6
(S'2'
tRp88
asS'Rnb'
p89
(lp90
g6
(S'100'
p91
tRp92
ag6
(S'0'
tRp93
ag6
(S'0'
tRp94
asS'shoegaze'
p95
(lp96
g6
(S'91'
p97
tRp98
ag6
(S'6'
tRp99
ag6
(S'2'
tRp100
asS'easy listening'
p101
(lp102
g6
(S'92'
p103
tRp104
ag6
(S'7'
tRp105
ag6
(S'0'
tRp106
asS'post-punk'
p107
(lp108
g6
(S'91'
p109
tRp110
ag6
(S'5'
tRp111
ag6
(S'2'
tRp112
asS'post-rock'
p113
(lp114
g6
(S'92'
p115
tRp116
ag6
(S'4'
tRp117
ag6
(S'2'
tRp118
asS'trip-hop'
p119
(lp120
g6
(S'89'
p121
tRp122
ag6
(S'7'
tRp123
ag6
(S'2'
tRp124
asS'piano'
p125
(lp126
g6
(S'86'
p127
tRp128
ag6
(S'10'
p129
tRp130
ag6
(S'3'
tRp131
asS'epic'
p132
(lp133
g6
(S'91'
p134
tRp135
ag6
(S'7'
tRp136
ag6
(S'0'
tRp137
asS'minimal'
p138
(lp139
g6
(S'94'
p140
tRp141
ag6
(S'5'
tRp142
ag6
(S'0'
tRp143
asS'calm'
p144
(lp145
g6
(S'94'
p146
tRp147
ag6
(S'5'
tRp148
ag6
(S'0'
tRp149
asS'reggae'
p150
(lp151
g6
(S'100'
p152
tRp153
ag6
(S'0'
tRp154
ag6
(S'0'
tRp155
asS'melancholy'
p156
(lp157
g6
(S'76'
p158
tRp159
ag6
(S'21'
p160
tRp161
ag6
(S'2'
tRp162
asS'noise'
p163
(lp164
g6
(S'97'
p165
tRp166
ag6
(S'2'
tRp167
ag6
(S'0'
tRp168
asS'jazz'
p169
(lp170
g6
(S'95'
p171
tRp172
ag6
(S'0'
tRp173
ag6
(S'3'
tRp174
asS'folk'
p175
(lp176
g6
(S'72'
p177
tRp178
ag6
(S'12'
p179
tRp180
ag6
(S'14'
p181
tRp182
asS'singer-songwriter'
p183
(lp184
g6
(S'67'
p185
tRp186
ag6
(S'18'
p187
tRp188
ag6
(S'13'
p189
tRp190
asS'sad'
p191
(lp192
g6
(S'82'
p193
tRp194
ag6
(S'17'
p195
tRp196
ag6
(S'0'
tRp197
asS'Mellow'
p198
(lp199
g6
(S'70'
p200
tRp201
ag6
(S'27'
p202
tRp203
ag6
(S'2'
tRp204
asS'psychedelic'
p205
(lp206
g6
(S'87'
p207
tRp208
ag6
(S'5'
tRp209
ag6
(S'6'
tRp210
asS'cool'
p211
(lp212
g6
(S'89'
p213
tRp214
ag6
(S'10'
p215
tRp216
ag6
(S'0'
tRp217
asS'romantic'
p218
(lp219
g6
(S'93'
p220
tRp221
ag6
(S'6'
tRp222
ag6
(S'0'
tRp223
asS'country'
p224
(lp225
g6
(S'97'
p226
tRp227
ag6
(S'2'
tRp228
ag6
(S'0'
tRp229
asS'emo'
p230
(lp231
g6
(S'98'
p232
tRp233
ag6
(S'1'
tRp234
ag6
(S'0'
tRp235
asS'punk'
p236
(lp237
g6
(S'96'
p238
tRp239
ag6
(S'2'
tRp240
ag6
(S'0'
tRp241
asS'saxophone'
p242
(lp243
g6
(S'100'
p244
tRp245
ag6
(S'0'
tRp246
ag6
(S'0'
tRp247
asS'chillout'
p248
(lp249
g6
(S'72'
p250
tRp251
ag6
(S'20'
p252
tRp253
ag6
(S'7'
tRp254
asS'Ska'
p255
(lp256
g6
(S'100'
p257
tRp258
ag6
(S'0'
tRp259
ag6
(S'0'
tRp260
asS'Lo-fi'
p261
(lp262
g6
(S'100'
p263
tRp264
ag6
(S'0'
tRp265
ag6
(S'0'
tRp266
assg191
(dp267
g4
(lp268
g6
(S'50'
p269
tRp270
ag6
(S'43'
p271
tRp272
ag6
(S'6'
tRp273
asg12
(lp274
g6
(S'98'
p275
tRp276
ag6
(S'1'
tRp277
ag6
(S'0'
tRp278
asg19
(lp279
g6
(S'98'
p280
tRp281
ag6
(S'1'
tRp282
ag6
(S'0'
tRp283
asg25
(lp284
g6
(S'91'
p285
tRp286
ag6
(S'4'
tRp287
ag6
(S'3'
tRp288
asg31
(lp289
g6
(S'100'
p290
tRp291
ag6
(S'0'
tRp292
ag6
(S'0'
tRp293
asg37
(lp294
g6
(S'90'
p295
tRp296
ag6
(S'7'
tRp297
ag6
(S'2'
tRp298
asg43
(lp299
g6
(S'100'
p300
tRp301
ag6
(S'0'
tRp302
ag6
(S'0'
tRp303
asg49
(lp304
g6
(S'75'
p305
tRp306
ag6
(S'10'
p307
tRp308
ag6
(S'13'
p309
tRp310
asg57
(lp311
g6
(S'93'
p312
tRp313
ag6
(S'6'
tRp314
ag6
(S'0'
tRp315
asg63
(lp316
g6
(S'82'
p317
tRp318
ag6
(S'15'
p319
tRp320
ag6
(S'1'
tRp321
asg71
(lp322
g6
(S'100'
p323
tRp324
ag6
(S'0'
tRp325
ag6
(S'0'
tRp326
asg77
(lp327
g6
(S'91'
p328
tRp329
ag6
(S'8'
tRp330
ag6
(S'0'
tRp331
asg83
(lp332
g6
(S'91'
p333
tRp334
ag6
(S'4'
tRp335
ag6
(S'3'
tRp336
asg89
(lp337
g6
(S'100'
p338
tRp339
ag6
(S'0'
tRp340
ag6
(S'0'
tRp341
asg95
(lp342
g6
(S'88'
p343
tRp344
ag6
(S'7'
tRp345
ag6
(S'4'
tRp346
asg101
(lp347
g6
(S'92'
p348
tRp349
ag6
(S'6'
tRp350
ag6
(S'0'
tRp351
asg107
(lp352
g6
(S'89'
p353
tRp354
ag6
(S'5'
tRp355
ag6
(S'4'
tRp356
asg113
(lp357
g6
(S'91'
p358
tRp359
ag6
(S'6'
tRp360
ag6
(S'2'
tRp361
asg119
(lp362
g6
(S'95'
p363
tRp364
ag6
(S'3'
tRp365
ag6
(S'0'
tRp366
asg125
(lp367
g6
(S'75'
p368
tRp369
ag6
(S'12'
p370
tRp371
ag6
(S'12'
p372
tRp373
asg132
(lp374
g6
(S'86'
p375
tRp376
ag6
(S'13'
p377
tRp378
ag6
(S'0'
tRp379
asg138
(lp380
g6
(S'94'
p381
tRp382
ag6
(S'5'
tRp383
ag6
(S'0'
tRp384
asg144
(lp385
g6
(S'87'
p386
tRp387
ag6
(S'12'
p388
tRp389
ag6
(S'0'
tRp390
asg150
(lp391
g6
(S'100'
p392
tRp393
ag6
(S'0'
tRp394
ag6
(S'0'
tRp395
asg156
(lp396
g6
(S'58'
p397
tRp398
ag6
(S'34'
p399
tRp400
ag6
(S'6'
tRp401
asg163
(lp402
g6
(S'94'
p403
tRp404
ag6
(S'5'
tRp405
ag6
(S'0'
tRp406
asg169
(lp407
g6
(S'94'
p408
tRp409
ag6
(S'0'
tRp410
ag6
(S'5'
tRp411
asg175
(lp412
g6
(S'65'
p413
tRp414
ag6
(S'16'
p415
tRp416
ag6
(S'17'
p417
tRp418
asg183
(lp419
g6
(S'65'
p420
tRp421
ag6
(S'17'
p422
tRp423
ag6
(S'16'
p424
tRp425
asg191
(lp426
g6
(S'70'
p427
tRp428
ag6
(S'27'
p429
tRp430
ag6
(S'1'
tRp431
asg198
(lp432
g6
(S'61'
p433
tRp434
ag6
(S'34'
p435
tRp436
ag6
(S'3'
tRp437
asg205
(lp438
g6
(S'88'
p439
tRp440
ag6
(S'8'
tRp441
ag6
(S'2'
tRp442
asg211
(lp443
g6
(S'95'
p444
tRp445
ag6
(S'4'
tRp446
ag6
(S'0'
tRp447
asg218
(lp448
g6
(S'91'
p449
tRp450
ag6
(S'7'
tRp451
ag6
(S'0'
tRp452
asg224
(lp453
g6
(S'99'
p454
tRp455
ag6
(S'0'
tRp456
ag6
(S'0'
tRp457
asg230
(lp458
g6
(S'97'
p459
tRp460
ag6
(S'2'
tRp461
ag6
(S'0'
tRp462
asg236
(lp463
g6
(S'95'
p464
tRp465
ag6
(S'4'
tRp466
ag6
(S'0'
tRp467
asg242
(lp468
g6
(S'99'
p469
tRp470
ag6
(S'0'
tRp471
ag6
(S'0'
tRp472
asg248
(lp473
g6
(S'68'
p474
tRp475
ag6
(S'31'
p476
tRp477
ag6
(S'0'
tRp478
asg255
(lp479
g6
(S'100'
p480
tRp481
ag6
(S'0'
tRp482
ag6
(S'0'
tRp483
asg261
(lp484
g6
(S'100'
p485
tRp486
ag6
(S'0'
tRp487
ag6
(S'0'
tRp488
assS'happy'
p489
(dp490
g4
(lp491
g6
(S'75'
p492
tRp493
ag6
(S'23'
p494
tRp495
ag6
(S'0'
tRp496
asg12
(lp497
g6
(S'84'
p498
tRp499
ag6
(S'14'
p500
tRp501
ag6
(S'0'
tRp502
asg19
(lp503
g6
(S'78'
p504
tRp505
ag6
(S'18'
p506
tRp507
ag6
(S'3'
tRp508
asg25
(lp509
g6
(S'100'
p510
tRp511
ag6
(S'0'
tRp512
ag6
(S'0'
tRp513
asg31
(lp514
g6
(S'100'
p515
tRp516
ag6
(S'0'
tRp517
ag6
(S'0'
tRp518
asg37
(lp519
g6
(S'94'
p520
tRp521
ag6
(S'5'
tRp522
ag6
(S'0'
tRp523
asg43
(lp524
g6
(S'100'
p525
tRp526
ag6
(S'0'
tRp527
ag6
(S'0'
tRp528
asg49
(lp529
g6
(S'84'
p530
tRp531
ag6
(S'11'
p532
tRp533
ag6
(S'4'
tRp534
asg57
(lp535
g6
(S'92'
p536
tRp537
ag6
(S'7'
tRp538
ag6
(S'0'
tRp539
asg63
(lp540
g6
(S'62'
p541
tRp542
ag6
(S'15'
p543
tRp544
ag6
(S'21'
p545
tRp546
asg71
(lp547
g6
(S'100'
p548
tRp549
ag6
(S'0'
tRp550
ag6
(S'0'
tRp551
asg77
(lp552
g6
(S'96'
p553
tRp554
ag6
(S'3'
tRp555
ag6
(S'0'
tRp556
asg83
(lp557
g6
(S'95'
p558
tRp559
ag6
(S'2'
tRp560
ag6
(S'1'
tRp561
asg89
(lp562
g6
(S'100'
p563
tRp564
ag6
(S'0'
tRp565
ag6
(S'0'
tRp566
asg95
(lp567
g6
(S'93'
p568
tRp569
ag6
(S'2'
tRp570
ag6
(S'3'
tRp571
asg101
(lp572
g6
(S'90'
p573
tRp574
ag6
(S'9'
tRp575
ag6
(S'0'
tRp576
asg107
(lp577
g6
(S'93'
p578
tRp579
ag6
(S'5'
tRp580
ag6
(S'0'
tRp581
asg113
(lp582
g6
(S'90'
p583
tRp584
ag6
(S'3'
tRp585
ag6
(S'6'
tRp586
asg119
(lp587
g6
(S'93'
p588
tRp589
ag6
(S'6'
tRp590
ag6
(S'0'
tRp591
asg125
(lp592
g6
(S'93'
p593
tRp594
ag6
(S'4'
tRp595
ag6
(S'1'
tRp596
asg132
(lp597
g6
(S'93'
p598
tRp599
ag6
(S'6'
tRp600
ag6
(S'0'
tRp601
asg138
(lp602
g6
(S'92'
p603
tRp604
ag6
(S'4'
tRp605
ag6
(S'3'
tRp606
asg144
(lp607
g6
(S'99'
p608
tRp609
ag6
(S'0'
tRp610
ag6
(S'0'
tRp611
asg150
(lp612
g6
(S'100'
p613
tRp614
ag6
(S'0'
tRp615
ag6
(S'0'
tRp616
asg156
(lp617
g6
(S'92'
p618
tRp619
ag6
(S'6'
tRp620
ag6
(S'0'
tRp621
asg163
(lp622
g6
(S'96'
p623
tRp624
ag6
(S'1'
tRp625
ag6
(S'1'
tRp626
asg169
(lp627
g6
(S'89'
p628
tRp629
ag6
(S'5'
tRp630
ag6
(S'5'
tRp631
asg175
(lp632
g6
(S'76'
p633
tRp634
ag6
(S'15'
p635
tRp636
ag6
(S'7'
tRp637
asg183
(lp638
g6
(S'79'
p639
tRp640
ag6
(S'14'
p641
tRp642
ag6
(S'6'
tRp643
asg191
(lp644
g6
(S'92'
p645
tRp646
ag6
(S'6'
tRp647
ag6
(S'0'
tRp648
asg198
(lp649
g6
(S'74'
p650
tRp651
ag6
(S'24'
p652
tRp653
ag6
(S'1'
tRp654
asg205
(lp655
g6
(S'81'
p656
tRp657
ag6
(S'16'
p658
tRp659
ag6
(S'1'
tRp660
asg211
(lp661
g6
(S'85'
p662
tRp663
ag6
(S'14'
p664
tRp665
ag6
(S'0'
tRp666
asg218
(lp667
g6
(S'97'
p668
tRp669
ag6
(S'2'
tRp670
ag6
(S'0'
tRp671
asg224
(lp672
g6
(S'99'
p673
tRp674
ag6
(S'0'
tRp675
ag6
(S'0'
tRp676
asg230
(lp677
g6
(S'98'
p678
tRp679
ag6
(S'1'
tRp680
ag6
(S'0'
tRp681
asg236
(lp682
g6
(S'97'
p683
tRp684
ag6
(S'2'
tRp685
ag6
(S'0'
tRp686
asg242
(lp687
g6
(S'93'
p688
tRp689
ag6
(S'6'
tRp690
ag6
(S'0'
tRp691
asg248
(lp692
g6
(S'75'
p693
tRp694
ag6
(S'19'
p695
tRp696
ag6
(S'4'
tRp697
asg255
(lp698
g6
(S'100'
p699
tRp700
ag6
(S'0'
tRp701
ag6
(S'0'
tRp702
asg261
(lp703
g6
(S'100'
p704
tRp705
ag6
(S'0'
tRp706
ag6
(S'0'
tRp707
ass.